; Function Attrs: nounwind uwtable
define noundef i32 @H5O_open(ptr nocapture noundef %0) local_unnamed_addr #1 {
  %2 = getelementptr inbounds i8, ptr %0, i64 16
  %3 = load i8, ptr %2, align 8
  %4 = trunc i8 %3 to i1
  br i1 %4, label %5, label %6

5:                                                ; preds = %1
  store i8 0, ptr %2, align 8
  br label %9

6:                                                ; preds = %1
  %7 = load ptr, ptr %0, align 8
  %8 = tail call i32 @H5F_incr_nopen_objs(ptr noundef %7) #11
  br label %9

9:                                                ; preds = %6, %5
  ret i32 0
}